; Function Attrs: mustprogress nofree norecurse nosync nounwind willreturn memory(read, argmem: write, inaccessiblemem: none) uwtable
define hidden i32 @get_ps_title(ptr nocapture noundef writeonly %0, ptr nocapture noundef writeonly %1) local_unnamed_addr #11 {
  %3 = load ptr, ptr @save_argv, align 8
  %.not.i = icmp eq ptr %3, null
  %4 = load ptr, ptr @ps_buffer, align 8
  %.not1.i = icmp eq ptr %4, null
  %..i = select i1 %.not1.i, i32 3, i32 0
  %.0.i = select i1 %.not.i, i32 2, i32 %..i
  %.not = icmp eq i32 %.0.i, 0
  br i1 %.not, label %5, label %7

5:                                                ; preds = %2
  %6 = load i64, ptr @ps_buffer_cur_len, align 8
  store i64 %6, ptr %0, align 8
  store ptr %4, ptr %1, align 8
  br label %7

7:                                                ; preds = %2, %5
  ret i32 %.0.i
}